target datalayout = "e-m:e-p270:32:32-p271:32:32-p272:64:64-i64:64-i128:128-f80:128-n8:16:32:64-S128"
target triple = "x86_64-pc-linux-gnu"

%struct._zend_executor_globals = type { %struct._zval_struct, %struct._zval_struct, [32 x ptr], ptr, ptr, %struct._zend_array, %struct._zend_array, ptr, i32, i32, ptr, ptr, ptr, ptr, ptr, ptr, i64, ptr, ptr, i32, i32, i64, i32, i32, i32, i8, i8, %struct.zend_atomic_bool_s, %struct.zend_atomic_bool_s, ptr, i64, ptr, ptr, %struct._zend_array, %struct._zend_array, i32, i8, %struct._zval_struct, %struct._zval_struct, %struct._zend_stack, %struct._zend_stack, %struct._zend_stack, ptr, i32, i32, i64, ptr, ptr, ptr, %struct._zend_objects_store, ptr, ptr, ptr, [3 x %struct._zend_op], ptr, i8, i8, i64, i32, i32, ptr, [16 x %struct._HashTableIterator], ptr, %union._zend_function, %struct._zend_op, %struct._zend_array, i64, %struct.zend_get_gc_buffer, ptr, ptr, ptr, i64, i8, i32, ptr, ptr, i64, %struct._zend_call_stack, i64, i64, [6 x ptr] }
%struct.zend_atomic_bool_s = type { i8 }
%struct._zval_struct = type { %union._zend_value, %union.anon.2, %union.anon.5 }
%union._zend_value = type { i64 }
%union.anon.2 = type { i32 }
%union.anon.5 = type { i32 }
%struct._zend_stack = type { i32, i32, i32, ptr }
%struct._zend_objects_store = type { ptr, i32, i32, i32 }
%struct._HashTableIterator = type { ptr, i32, i32 }
%union._zend_function = type { %struct._zend_op_array }
%struct._zend_op_array = type { i8, [3 x i8], i32, ptr, ptr, ptr, i32, i32, ptr, ptr, ptr, ptr, i32, i32, i32, i32, ptr, ptr, ptr, ptr, ptr, i32, i32, ptr, ptr, ptr, i32, i32, i32, i32, ptr, ptr, [6 x ptr] }
%struct._zend_op = type { ptr, %union._znode_op, %union._znode_op, %union._znode_op, i32, i32, i8, i8, i8, i8 }
%union._znode_op = type { i32 }
%struct._zend_array = type { %struct._zend_refcounted_h, %union.anon.7, i32, %union.anon.9, i32, i32, i32, i32, i64, ptr }
%struct._zend_refcounted_h = type { i32, %union.anon.6 }
%union.anon.6 = type { i32 }
%union.anon.7 = type { i32 }
%union.anon.9 = type { ptr }
%struct.zend_get_gc_buffer = type { ptr, ptr, ptr }
%struct._zend_call_stack = type { ptr, i64 }
%struct._spl_filesystem_object = type { ptr, ptr, ptr, ptr, ptr, i32, i64, ptr, ptr, %union.anon, %struct._zend_object }
%union.anon = type { %struct.anon }
%struct.anon = type { ptr, ptr, i32, ptr, ptr, ptr, %struct._php_stream_dirent }
%struct._php_stream_dirent = type { [256 x i8], i8 }
%struct._zend_object = type { %struct._zend_refcounted_h, i32, ptr, ptr, ptr, [1 x %struct._zval_struct] }
%struct._zend_execute_data = type { ptr, ptr, ptr, ptr, %struct._zval_struct, ptr, ptr, ptr, ptr }
%struct.anon.0 = type { ptr, ptr, ptr, ptr, %struct._zval_struct, ptr, i64, i64, i64, %struct._zval_struct, ptr, i8, i8, i32 }

@executor_globals = external global %struct._zend_executor_globals, align 8

; Function Attrs: nounwind uwtable
define internal ptr @spl_filesystem_from_obj(ptr noundef %0) #0 {
  %2 = alloca ptr, align 8
  store ptr %0, ptr %2, align 8
  %3 = load ptr, ptr %2, align 8
  %4 = getelementptr inbounds i8, ptr %3, i64 -384
  ret ptr %4
}

; Function Attrs: nounwind uwtable
define hidden void @zim_SplFileObject_valid(ptr noundef %0, ptr noundef %1) #0 {
  %3 = alloca ptr, align 8
  %4 = alloca ptr, align 8
  %5 = alloca ptr, align 8
  %6 = alloca ptr, align 8
  store ptr %0, ptr %4, align 8
  store ptr %1, ptr %5, align 8
  %7 = load ptr, ptr %4, align 8
  %8 = getelementptr inbounds %struct._zend_execute_data, ptr %7, i32 0, i32 4
  %9 = getelementptr inbounds %struct._zval_struct, ptr %8, i32 0, i32 0
  %10 = load ptr, ptr %9, align 8
  %11 = call ptr @spl_filesystem_from_obj(ptr noundef %10)
  store ptr %11, ptr %6, align 8
  %12 = load ptr, ptr %4, align 8
  %13 = getelementptr inbounds %struct._zend_execute_data, ptr %12, i32 0, i32 4
  %14 = getelementptr inbounds %struct._zval_struct, ptr %13, i32 0, i32 2
  %15 = load i32, ptr %14, align 4
  %16 = icmp eq i32 %15, 0
  %17 = xor i1 %16, true
  %18 = xor i1 %17, true
  %19 = zext i1 %18 to i32
  %20 = sext i32 %19 to i64
  %21 = icmp ne i64 %20, 0
  br i1 %21, label %22, label %23

22:                                               ; preds = %2
  br label %24

23:                                               ; preds = %2
  call void @zend_wrong_parameters_none_error()
  br label %24

24:                                               ; preds = %23, %22
  %25 = phi i32 [ 0, %22 ], [ -1, %23 ]
  %26 = icmp eq i32 %25, -1
  br i1 %26, label %27, label %32

27:                                               ; preds = %24
  br label %28

28:                                               ; preds = %27
  %29 = load ptr, ptr getelementptr inbounds (%struct._zend_executor_globals, ptr @executor_globals, i32 0, i32 50), align 8
  %30 = icmp ne ptr %29, null
  call void @llvm.assume(i1 %30)
  br label %91

31:                                               ; No predecessors!
  br label %32

32:                                               ; preds = %31, %24
  %33 = load ptr, ptr %6, align 8
  %34 = getelementptr inbounds %struct._spl_filesystem_object, ptr %33, i32 0, i32 6
  %35 = load i64, ptr %34, align 8
  %36 = and i64 %35, 2
  %37 = icmp ne i64 %36, 0
  br i1 %37, label %38, label %39

38:                                               ; preds = %32
  br i1 true, label %40, label %65

39:                                               ; preds = %32
  br i1 false, label %40, label %65

40:                                               ; preds = %39, %38
  br label %41

41:                                               ; preds = %40
  br label %42

42:                                               ; preds = %41
  %43 = load ptr, ptr %6, align 8
  %44 = getelementptr inbounds %struct._spl_filesystem_object, ptr %43, i32 0, i32 9
  %45 = getelementptr inbounds %struct.anon.0, ptr %44, i32 0, i32 5
  %46 = load ptr, ptr %45, align 8
  %47 = icmp ne ptr %46, null
  br i1 %47, label %58, label %48

48:                                               ; preds = %42
  %49 = load ptr, ptr %6, align 8
  %50 = getelementptr inbounds %struct._spl_filesystem_object, ptr %49, i32 0, i32 9
  %51 = getelementptr inbounds %struct.anon.0, ptr %50, i32 0, i32 4
  store ptr %51, ptr %3, align 8
  %52 = load ptr, ptr %3, align 8
  %53 = getelementptr inbounds %struct._zval_struct, ptr %52, i32 0, i32 1
  %54 = load i8, ptr %53, align 8
  %55 = zext i8 %54 to i32
  %56 = icmp eq i32 %55, 0
  %57 = xor i1 %56, true
  br label %58

58:                                               ; preds = %48, %42
  %59 = phi i1 [ true, %42 ], [ %57, %48 ]
  %60 = select i1 %59, i32 3, i32 2
  %61 = load ptr, ptr %5, align 8
  %62 = getelementptr inbounds %struct._zval_struct, ptr %61, i32 0, i32 1
  store i32 %60, ptr %62, align 8
  br label %63

63:                                               ; preds = %58
  br label %91

64:                                               ; No predecessors!
  br label %65

65:                                               ; preds = %64, %39, %38
  %66 = load ptr, ptr %6, align 8
  %67 = getelementptr inbounds %struct._spl_filesystem_object, ptr %66, i32 0, i32 9
  %68 = getelementptr inbounds %struct.anon.0, ptr %67, i32 0, i32 0
  %69 = load ptr, ptr %68, align 8
  %70 = icmp ne ptr %69, null
  br i1 %70, label %78, label %71

71:                                               ; preds = %65
  br label %72

72:                                               ; preds = %71
  br label %73

73:                                               ; preds = %72
  %74 = load ptr, ptr %5, align 8
  %75 = getelementptr inbounds %struct._zval_struct, ptr %74, i32 0, i32 1
  store i32 2, ptr %75, align 8
  br label %76

76:                                               ; preds = %73
  br label %91

77:                                               ; No predecessors!
  br label %78

78:                                               ; preds = %77, %65
  br label %79

79:                                               ; preds = %78
  br label %80

80:                                               ; preds = %79
  %81 = load ptr, ptr %6, align 8
  %82 = getelementptr inbounds %struct._spl_filesystem_object, ptr %81, i32 0, i32 9
  %83 = getelementptr inbounds %struct.anon.0, ptr %82, i32 0, i32 0
  %84 = load ptr, ptr %83, align 8
  %85 = call zeroext i1 @_php_stream_eof(ptr noundef %84)
  %86 = xor i1 %85, true
  %87 = select i1 %86, i32 3, i32 2
  %88 = load ptr, ptr %5, align 8
  %89 = getelementptr inbounds %struct._zval_struct, ptr %88, i32 0, i32 1
  store i32 %87, ptr %89, align 8
  br label %90

90:                                               ; preds = %80
  br label %91

91:                                               ; preds = %90, %76, %63, %28
  ret void
}