; Function Attrs: nounwind uwtable
define hidden void @zim_SplFileObject_valid(ptr nocapture noundef readonly %0, ptr nocapture noundef writeonly %1) #0 {
  %3 = getelementptr inbounds i8, ptr %0, i64 32
  %4 = load ptr, ptr %3, align 8
  %5 = getelementptr inbounds i8, ptr %0, i64 44
  %6 = load i32, ptr %5, align 4
  %.not = icmp eq i32 %6, 0
  br i1 %.not, label %.critedge, label %7

7:                                                ; preds = %2
  tail call void @zend_wrong_parameters_none_error() #18
  %8 = load ptr, ptr getelementptr inbounds (%struct._zend_executor_globals, ptr @executor_globals, i64 0, i32 50), align 8
  %9 = icmp ne ptr %8, null
  tail call void @llvm.assume(i1 %9)
  br label %32

.critedge:                                        ; preds = %2
  %10 = getelementptr inbounds i8, ptr %4, i64 -336
  %11 = load i64, ptr %10, align 8
  %12 = and i64 %11, 2
  %.not11 = icmp eq i64 %12, 0
  br i1 %.not11, label %23, label %13

13:                                               ; preds = %.critedge
  %14 = getelementptr inbounds i8, ptr %4, i64 -264
  %15 = load ptr, ptr %14, align 8
  %.not13 = icmp eq ptr %15, null
  br i1 %.not13, label %16, label %20

16:                                               ; preds = %13
  %17 = getelementptr inbounds i8, ptr %4, i64 -272
  %18 = load i8, ptr %17, align 8
  %.not14 = icmp eq i8 %18, 0
  %19 = select i1 %.not14, i32 2, i32 3
  br label %20

20:                                               ; preds = %16, %13
  %21 = phi i32 [ 3, %13 ], [ %19, %16 ]
  %22 = getelementptr inbounds i8, ptr %1, i64 8
  store i32 %21, ptr %22, align 8
  br label %32

23:                                               ; preds = %.critedge
  %24 = getelementptr inbounds i8, ptr %4, i64 -312
  %25 = load ptr, ptr %24, align 8
  %.not12 = icmp eq ptr %25, null
  br i1 %.not12, label %26, label %28

26:                                               ; preds = %23
  %27 = getelementptr inbounds i8, ptr %1, i64 8
  store i32 2, ptr %27, align 8
  br label %32

28:                                               ; preds = %23
  %29 = tail call zeroext i1 @_php_stream_eof(ptr noundef nonnull %25) #18
  %30 = select i1 %29, i32 2, i32 3
  %31 = getelementptr inbounds i8, ptr %1, i64 8
  store i32 %30, ptr %31, align 8
  br label %32

32:                                               ; preds = %28, %26, %20, %7
  ret void
}